; Function Attrs: mustprogress uwtable
define void @_ZN4cvc56parser21GetTimeoutCoreCommandC2Ev(ptr noundef nonnull align 8 dereferenceable(96) initializes((0, 56)) %0) unnamed_addr #3 align 2 personality ptr @__gxx_personality_v0 {
  %2 = getelementptr inbounds nuw i8, ptr %0, i64 8
  store ptr null, ptr %2, align 8, !tbaa !48
  store ptr getelementptr inbounds nuw inrange(-16, 56) (i8, ptr @_ZTVN4cvc56parser21GetTimeoutCoreCommandE, i64 16), ptr %0, align 8, !tbaa !6
  %3 = getelementptr inbounds nuw i8, ptr %0, i64 16
  %4 = getelementptr inbounds nuw i8, ptr %0, i64 56
  tail call void @llvm.memset.p0.i64(ptr noundef nonnull align 8 dereferenceable(40) %3, i8 0, i64 40, i1 false)
  invoke void @_ZN4cvc56ResultC1Ev(ptr noundef nonnull align 8 dereferenceable(40) %4)
          to label %5 unwind label %7

5:                                                ; preds = %1
  %6 = getelementptr inbounds nuw i8, ptr %0, i64 72
  tail call void @llvm.memset.p0.i64(ptr noundef nonnull align 8 dereferenceable(24) %6, i8 0, i64 24, i1 false)
  ret void

7:                                                ; preds = %1
  %8 = landingpad { ptr, i32 }
          cleanup
  %9 = getelementptr inbounds nuw i8, ptr %0, i64 32
  tail call void @_ZNSt6vectorIN4cvc54TermESaIS1_EED2Ev(ptr noundef nonnull align 8 dereferenceable(24) %9) #33
  store ptr getelementptr inbounds nuw inrange(-16, 56) (i8, ptr @_ZTVN4cvc56parser3CmdE, i64 16), ptr %0, align 8, !tbaa !6
  %10 = load ptr, ptr %2, align 8, !tbaa !48
  %.not.i = icmp eq ptr %10, null
  %11 = load ptr, ptr @_ZN4cvc56parser14CommandSuccess10s_instanceE, align 8
  %.not2.i = icmp eq ptr %10, %11
  %or.cond.i = select i1 %.not.i, i1 true, i1 %.not2.i
  br i1 %or.cond.i, label %_ZN4cvc56parser3CmdD2Ev.exit, label %12

12:                                               ; preds = %7
  %13 = load ptr, ptr %10, align 8, !tbaa !6
  %14 = getelementptr inbounds nuw i8, ptr %13, i64 8
  %15 = load ptr, ptr %14, align 8
  tail call void %15(ptr noundef nonnull align 8 dereferenceable(8) %10) #33
  br label %_ZN4cvc56parser3CmdD2Ev.exit

_ZN4cvc56parser3CmdD2Ev.exit:                     ; preds = %7, %12
  resume { ptr, i32 } %8
}